target datalayout = "e-m:e-p270:32:32-p271:32:32-p272:64:64-i64:64-i128:128-f80:128-n8:16:32:64-S128"
target triple = "x86_64-pc-linux-gnu"

%struct.cCLLog_timeStamp_t = type { i64, i16 }
%struct.cCLLog_message_t = type { %struct.cCLLog_timeStamp_t, i32, i32, i32, i8, [8 x i8] }

@.str.58 = private unnamed_addr constant [45 x i8] c"cllog: packet byte value 0x%02x is not valid\00", align 1

; Function Attrs: null_pointer_is_valid sspstrong uwtable
define internal zeroext i1 @parseFieldData(ptr noundef %0, ptr noundef %1, ptr noundef %2, ptr noundef %3, ptr noundef %4) #0 {
  %6 = alloca i1, align 1
  %7 = alloca ptr, align 8
  %8 = alloca ptr, align 8
  %9 = alloca ptr, align 8
  %10 = alloca ptr, align 8
  %11 = alloca ptr, align 8
  %12 = alloca ptr, align 8
  %13 = alloca i32, align 4
  %14 = alloca i8, align 1
  %15 = alloca i32, align 4
  store ptr %0, ptr %7, align 8
  store ptr %1, ptr %8, align 8
  store ptr %2, ptr %9, align 8
  store ptr %3, ptr %10, align 8
  store ptr %4, ptr %11, align 8
  call void @llvm.lifetime.start.p0(i64 8, ptr %12) #13
  %16 = load ptr, ptr %8, align 8
  store ptr %16, ptr %12, align 8
  %17 = load ptr, ptr %9, align 8
  %18 = getelementptr inbounds nuw %struct.cCLLog_message_t, ptr %17, i32 0, i32 4
  store i8 0, ptr %18, align 4
  br label %19

19:                                               ; preds = %95, %5
  %20 = load ptr, ptr %9, align 8
  %21 = getelementptr inbounds nuw %struct.cCLLog_message_t, ptr %20, i32 0, i32 4
  %22 = load i8, ptr %21, align 4
  %23 = zext i8 %22 to i64
  %24 = icmp ult i64 %23, 8
  br i1 %24, label %25, label %96

25:                                               ; preds = %19
  call void @llvm.lifetime.start.p0(i64 4, ptr %13) #13
  call void @llvm.lifetime.start.p0(i64 1, ptr %14) #13
  %26 = load ptr, ptr %12, align 8
  %27 = load i8, ptr %26, align 1
  %28 = sext i8 %27 to i32
  %29 = icmp eq i32 %28, 10
  br i1 %29, label %40, label %30

30:                                               ; preds = %25
  %31 = load ptr, ptr %12, align 8
  %32 = load i8, ptr %31, align 1
  %33 = sext i8 %32 to i32
  %34 = icmp eq i32 %33, 13
  br i1 %34, label %40, label %35

35:                                               ; preds = %30
  %36 = load ptr, ptr %12, align 8
  %37 = load i8, ptr %36, align 1
  %38 = sext i8 %37 to i32
  %39 = icmp eq i32 %38, 0
  br i1 %39, label %40, label %41

40:                                               ; preds = %35, %30, %25
  store i32 3, ptr %15, align 4
  br label %93

41:                                               ; preds = %35
  %42 = load ptr, ptr %12, align 8
  %43 = load i8, ptr %42, align 1
  %44 = call i32 @ws_xton(i8 noundef signext %43)
  store i32 %44, ptr %13, align 4
  %45 = load i32, ptr %13, align 4
  %46 = icmp slt i32 %45, 0
  br i1 %46, label %47, label %54

47:                                               ; preds = %41
  %48 = load ptr, ptr %10, align 8
  store i32 -13, ptr %48, align 4
  %49 = load ptr, ptr %12, align 8
  %50 = load i8, ptr %49, align 1
  %51 = sext i8 %50 to i32
  %52 = call noalias ptr (ptr, ...) @g_strdup_printf(ptr noundef @.str.58, i32 noundef %51)
  %53 = load ptr, ptr %11, align 8
  store ptr %52, ptr %53, align 8
  store i1 false, ptr %6, align 1
  store i32 1, ptr %15, align 4
  br label %93

54:                                               ; preds = %41
  %55 = load i32, ptr %13, align 4
  %56 = trunc i32 %55 to i8
  %57 = zext i8 %56 to i32
  %58 = shl i32 %57, 4
  %59 = trunc i32 %58 to i8
  store i8 %59, ptr %14, align 1
  %60 = load ptr, ptr %12, align 8
  %61 = getelementptr i8, ptr %60, i32 1
  store ptr %61, ptr %12, align 8
  %62 = load ptr, ptr %12, align 8
  %63 = load i8, ptr %62, align 1
  %64 = call i32 @ws_xton(i8 noundef signext %63)
  store i32 %64, ptr %13, align 4
  %65 = load i32, ptr %13, align 4
  %66 = icmp slt i32 %65, 0
  br i1 %66, label %67, label %74

67:                                               ; preds = %54
  %68 = load ptr, ptr %10, align 8
  store i32 -13, ptr %68, align 4
  %69 = load ptr, ptr %12, align 8
  %70 = load i8, ptr %69, align 1
  %71 = sext i8 %70 to i32
  %72 = call noalias ptr (ptr, ...) @g_strdup_printf(ptr noundef @.str.58, i32 noundef %71)
  %73 = load ptr, ptr %11, align 8
  store ptr %72, ptr %73, align 8
  store i1 false, ptr %6, align 1
  store i32 1, ptr %15, align 4
  br label %93

74:                                               ; preds = %54
  %75 = load i8, ptr %14, align 1
  %76 = zext i8 %75 to i32
  %77 = load i32, ptr %13, align 4
  %78 = trunc i32 %77 to i8
  %79 = zext i8 %78 to i32
  %80 = or i32 %76, %79
  %81 = trunc i32 %80 to i8
  store i8 %81, ptr %14, align 1
  %82 = load ptr, ptr %12, align 8
  %83 = getelementptr i8, ptr %82, i32 1
  store ptr %83, ptr %12, align 8
  %84 = load i8, ptr %14, align 1
  %85 = load ptr, ptr %9, align 8
  %86 = getelementptr inbounds nuw %struct.cCLLog_message_t, ptr %85, i32 0, i32 5
  %87 = load ptr, ptr %9, align 8
  %88 = getelementptr inbounds nuw %struct.cCLLog_message_t, ptr %87, i32 0, i32 4
  %89 = load i8, ptr %88, align 4
  %90 = add i8 %89, 1
  store i8 %90, ptr %88, align 4
  %91 = zext i8 %89 to i64
  %92 = getelementptr [8 x i8], ptr %86, i64 0, i64 %91
  store i8 %84, ptr %92, align 1
  store i32 0, ptr %15, align 4
  br label %93

93:                                               ; preds = %74, %67, %47, %40
  call void @llvm.lifetime.end.p0(i64 1, ptr %14) #13
  call void @llvm.lifetime.end.p0(i64 4, ptr %13) #13
  %94 = load i32, ptr %15, align 4
  switch i32 %94, label %97 [
    i32 0, label %95
    i32 3, label %96
  ]

95:                                               ; preds = %93
  br label %19, !llvm.loop !13

96:                                               ; preds = %93, %19
  store i1 true, ptr %6, align 1
  store i32 1, ptr %15, align 4
  br label %97

97:                                               ; preds = %96, %93
  call void @llvm.lifetime.end.p0(i64 8, ptr %12) #13
  %98 = load i1, ptr %6, align 1
  ret i1 %98
}