; Function Attrs: null_pointer_is_valid sspstrong uwtable
define internal noundef zeroext i1 @parseFieldData(ptr readnone captures(none) %0, ptr noundef readonly captures(none) %1, ptr noundef captures(none) initializes((28, 29)) %2, ptr noundef writeonly captures(none) %3, ptr noundef writeonly captures(none) %4) #0 {
  %6 = getelementptr inbounds nuw i8, ptr %2, i64 28
  store i8 0, ptr %6, align 4
  %7 = getelementptr inbounds nuw i8, ptr %2, i64 29
  br label %17

thread-pre-split:                                 ; preds = %22
  %8 = shl i32 %20, 4
  %9 = or i32 %25, %8
  %10 = trunc i32 %9 to i8
  %11 = getelementptr i8, ptr %.02539, i64 2
  %12 = load i8, ptr %6, align 4
  %13 = add i8 %12, 1
  store i8 %13, ptr %6, align 4
  %14 = zext i8 %12 to i64
  %15 = getelementptr [8 x i8], ptr %7, i64 0, i64 %14
  store i8 %10, ptr %15, align 1
  %16 = icmp ult i8 %13, 8
  br i1 %16, label %17, label %.thread

17:                                               ; preds = %5, %thread-pre-split
  %.02539 = phi ptr [ %1, %5 ], [ %11, %thread-pre-split ]
  %18 = load i8, ptr %.02539, align 1
  switch i8 %18, label %19 [
    i8 10, label %.thread
    i8 13, label %.thread
    i8 0, label %.thread
  ]

19:                                               ; preds = %17
  %20 = tail call i32 @ws_xton(i8 noundef signext %18)
  %21 = icmp slt i32 %20, 0
  br i1 %21, label %.thread.sink.split, label %22

22:                                               ; preds = %19
  %23 = getelementptr i8, ptr %.02539, i64 1
  %24 = load i8, ptr %23, align 1
  %25 = tail call i32 @ws_xton(i8 noundef signext %24)
  %26 = icmp slt i32 %25, 0
  br i1 %26, label %27, label %thread-pre-split

27:                                               ; preds = %22
  %28 = getelementptr i8, ptr %.02539, i64 1
  br label %.thread.sink.split

.thread.sink.split:                               ; preds = %19, %27
  %.sink.in = phi ptr [ %28, %27 ], [ %.02539, %19 ]
  store i32 -13, ptr %3, align 4
  %.sink = load i8, ptr %.sink.in, align 1
  %29 = sext i8 %.sink to i32
  %30 = tail call noalias ptr (ptr, ...) @g_strdup_printf(ptr noundef nonnull @.str.58, i32 noundef %29)
  store ptr %30, ptr %4, align 8
  br label %.thread

.thread:                                          ; preds = %thread-pre-split, %17, %17, %17, %.thread.sink.split
  %.2 = phi i1 [ false, %.thread.sink.split ], [ true, %17 ], [ true, %17 ], [ true, %17 ], [ true, %thread-pre-split ]
  ret i1 %.2
}